; Function Attrs: mustprogress nofree norecurse nosync nounwind sspstrong willreturn memory(readwrite, inaccessiblemem: none) uwtable
define internal void @of_dpa_multicast_routing_build_match(ptr noundef readonly captures(none) %fc, ptr noundef writeonly captures(none) initializes((8, 14), (26, 28), (104, 108)) %match) #13 {
entry:
  %tbl_id = getelementptr inbounds nuw i8, ptr %match, i64 8
  store i32 40, ptr %tbl_id, align 8
  %h_proto = getelementptr inbounds nuw i8, ptr %fc, i64 72
  %0 = load ptr, ptr %h_proto, align 8
  %1 = load i16, ptr %0, align 2
  %eth = getelementptr inbounds nuw i8, ptr %match, i64 12
  %type = getelementptr inbounds nuw i8, ptr %match, i64 26
  store i16 %1, ptr %type, align 2
  %vlanhdr = getelementptr inbounds nuw i8, ptr %fc, i64 80
  %2 = load ptr, ptr %vlanhdr, align 8
  %3 = load i16, ptr %2, align 2
  store i16 %3, ptr %eth, align 4
  %ipv4hdr = getelementptr inbounds nuw i8, ptr %fc, i64 88
  %4 = load ptr, ptr %ipv4hdr, align 8
  %tobool.not = icmp eq ptr %4, null
  br i1 %tobool.not, label %if.end, label %if.then

if.then:                                          ; preds = %entry
  %ip_src = getelementptr inbounds nuw i8, ptr %4, i64 12
  %5 = load i32, ptr %ip_src, align 4
  %6 = getelementptr inbounds nuw i8, ptr %match, i64 32
  store i32 %5, ptr %6, align 8
  %7 = load ptr, ptr %ipv4hdr, align 8
  %ip_dst = getelementptr inbounds nuw i8, ptr %7, i64 16
  %8 = load i32, ptr %ip_dst, align 4
  %dst = getelementptr inbounds nuw i8, ptr %match, i64 36
  store i32 %8, ptr %dst, align 4
  br label %if.end

if.end:                                           ; preds = %if.then, %entry
  %ipv6_src_addr = getelementptr inbounds nuw i8, ptr %fc, i64 104
  %9 = load ptr, ptr %ipv6_src_addr, align 8
  %tobool14.not = icmp eq ptr %9, null
  br i1 %tobool14.not, label %if.end21, label %if.then15

if.then15:                                        ; preds = %if.end
  %10 = getelementptr inbounds nuw i8, ptr %match, i64 32
  tail call void @llvm.memcpy.p0.p0.i64(ptr noundef nonnull align 8 dereferenceable(16) %10, ptr noundef nonnull align 4 dereferenceable(16) %9, i64 16, i1 false)
  br label %if.end21

if.end21:                                         ; preds = %if.then15, %if.end
  %ipv6_dst_addr = getelementptr inbounds nuw i8, ptr %fc, i64 112
  %11 = load ptr, ptr %ipv6_dst_addr, align 8
  %tobool23.not = icmp eq ptr %11, null
  br i1 %tobool23.not, label %if.end30, label %if.then24

if.then24:                                        ; preds = %if.end21
  %dst27 = getelementptr inbounds nuw i8, ptr %match, i64 48
  tail call void @llvm.memcpy.p0.p0.i64(ptr noundef nonnull align 8 dereferenceable(16) %dst27, ptr noundef nonnull align 4 dereferenceable(16) %11, i64 16, i1 false)
  br label %if.end30

if.end30:                                         ; preds = %if.then24, %if.end21
  %width = getelementptr inbounds nuw i8, ptr %match, i64 104
  store i32 8, ptr %width, align 8
  ret void
}